; Function Attrs: nounwind uwtable
define void @lv_menu_set_page_title(ptr nocapture noundef %0, ptr noundef %1) local_unnamed_addr #0 {
  %3 = getelementptr inbounds nuw i8, ptr %0, i64 72
  %4 = load i8, ptr %3, align 8, !tbaa !21, !range !24, !noundef !25
  %5 = trunc nuw i8 %4 to i1
  br i1 %5, label %10, label %6

6:                                                ; preds = %2
  %7 = getelementptr inbounds nuw i8, ptr %0, i64 64
  %8 = load ptr, ptr %7, align 8, !tbaa !26
  %.not = icmp eq ptr %8, null
  br i1 %.not, label %10, label %9

9:                                                ; preds = %6
  tail call void @lv_free(ptr noundef nonnull %8) #4
  store ptr null, ptr %7, align 8, !tbaa !26
  br label %10

10:                                               ; preds = %9, %6, %2
  %.not14 = icmp eq ptr %1, null
  br i1 %.not14, label %14, label %11

11:                                               ; preds = %10
  store i8 0, ptr %3, align 8, !tbaa !21
  %12 = tail call ptr @lv_strdup(ptr noundef nonnull %1) #4
  %13 = getelementptr inbounds nuw i8, ptr %0, i64 64
  store ptr %12, ptr %13, align 8, !tbaa !26
  %.not15 = icmp eq ptr %12, null
  br i1 %.not15, label %.preheader, label %16

.preheader:                                       ; preds = %11, %.preheader
  br label %.preheader

14:                                               ; preds = %10
  %15 = getelementptr inbounds nuw i8, ptr %0, i64 64
  store ptr null, ptr %15, align 8, !tbaa !26
  store i8 0, ptr %3, align 8, !tbaa !21
  br label %16

16:                                               ; preds = %14, %11
  ret void
}